; Function Attrs: mustprogress nofree norecurse nosync nounwind willreturn memory(argmem: write) uwtable
define dso_local void @_ZN4llvm4dxil12ResourceInfo11Texture2DMSEPNS_5ValueENS_9StringRefENS0_11ElementTypeEjj(ptr dead_on_unwind noalias nocapture writable writeonly sret(%"class.llvm::dxil::ResourceInfo") align 8 %0, ptr noundef %1, ptr %2, i64 %3, i32 noundef %4, i32 noundef %5, i32 noundef %6) local_unnamed_addr #1 align 2 {
  store ptr %1, ptr %0, align 8
  %8 = getelementptr inbounds nuw i8, ptr %0, i64 8
  store ptr %2, ptr %8, align 8
  %.sroa.2.0..sroa_idx.i = getelementptr inbounds i8, ptr %0, i64 16
  store i64 %3, ptr %.sroa.2.0..sroa_idx.i, align 8
  %9 = getelementptr inbounds nuw i8, ptr %0, i64 24
  store i8 0, ptr %9, align 8
  %10 = getelementptr inbounds nuw i8, ptr %0, i64 28
  store i32 3, ptr %10, align 4
  %11 = getelementptr inbounds nuw i8, ptr %0, i64 32
  tail call void @llvm.memset.p0.i64(ptr noundef nonnull align 8 dereferenceable(16) %11, i8 0, i64 16, i1 false)
  %12 = getelementptr inbounds nuw i8, ptr %0, i64 52
  store i32 %4, ptr %12, align 4
  %13 = getelementptr inbounds i8, ptr %0, i64 56
  store i32 %5, ptr %13, align 8
  %14 = getelementptr inbounds nuw i8, ptr %0, i64 60
  store i32 %6, ptr %14, align 4
  ret void
}